target datalayout = "e-m:e-p270:32:32-p271:32:32-p272:64:64-i64:64-i128:128-f80:128-n8:16:32:64-S128"
target triple = "x86_64-pc-linux-gnu"

@PyExc_OSError = external global ptr, align 8
@.str.102 = private unnamed_addr constant [64 x i8] c"Exception ignored while trying to write to the signal wakeup fd\00", align 1

; Function Attrs: nounwind uwtable
define internal i32 @report_wakeup_write_error(ptr noundef %0) #0 {
  %2 = alloca ptr, align 8
  %3 = alloca i32, align 4
  %4 = alloca ptr, align 8
  store ptr %0, ptr %2, align 8, !tbaa !202
  call void @llvm.lifetime.start.p0(i64 4, ptr %3) #10
  %5 = call ptr @__errno_location() #11
  %6 = load i32, ptr %5, align 4, !tbaa !4
  store i32 %6, ptr %3, align 4, !tbaa !4
  %7 = load ptr, ptr %2, align 8, !tbaa !202
  %8 = ptrtoint ptr %7 to i64
  %9 = trunc i64 %8 to i32
  %10 = call ptr @__errno_location() #11
  store i32 %9, ptr %10, align 4, !tbaa !4
  call void @llvm.lifetime.start.p0(i64 8, ptr %4) #10
  %11 = call ptr @PyErr_GetRaisedException()
  store ptr %11, ptr %4, align 8, !tbaa !179
  %12 = load ptr, ptr @PyExc_OSError, align 8, !tbaa !179
  %13 = call ptr @PyErr_SetFromErrno(ptr noundef %12)
  call void (ptr, ...) @PyErr_FormatUnraisable(ptr noundef @.str.102)
  %14 = load ptr, ptr %4, align 8, !tbaa !179
  call void @PyErr_SetRaisedException(ptr noundef %14)
  %15 = load i32, ptr %3, align 4, !tbaa !4
  %16 = call ptr @__errno_location() #11
  store i32 %15, ptr %16, align 4, !tbaa !4
  call void @llvm.lifetime.end.p0(i64 8, ptr %4) #10
  call void @llvm.lifetime.end.p0(i64 4, ptr %3) #10
  ret i32 0
}