; Function Attrs: nounwind uwtable
define internal noundef i32 @report_wakeup_write_error(ptr noundef %0) #2 {
  %2 = tail call ptr @__errno_location() #16
  %3 = load i32, ptr %2, align 4, !tbaa !199
  %4 = ptrtoint ptr %0 to i64
  %5 = trunc i64 %4 to i32
  store i32 %5, ptr %2, align 4, !tbaa !199
  %6 = tail call ptr @PyErr_GetRaisedException() #15
  %7 = load ptr, ptr @PyExc_OSError, align 8, !tbaa !176
  %8 = tail call ptr @PyErr_SetFromErrno(ptr noundef %7) #15
  tail call void (ptr, ...) @PyErr_FormatUnraisable(ptr noundef nonnull @.str.102) #15
  tail call void @PyErr_SetRaisedException(ptr noundef %6) #15
  store i32 %3, ptr %2, align 4, !tbaa !199
  ret i32 0
}